; Function Attrs: mustprogress nounwind uwtable
define void @_ZN4GURLD2Ev(ptr noundef nonnull align 8 dereferenceable(120) %0) unnamed_addr #7 align 2 personality ptr @__gxx_personality_v0 {
  %2 = getelementptr inbounds nuw i8, ptr %0, i64 112
  %3 = load ptr, ptr %2, align 8, !tbaa !32
  %.not.i = icmp eq ptr %3, null
  br i1 %.not.i, label %_ZNSt10unique_ptrI4GURLSt14default_deleteIS0_EED2Ev.exit, label %_ZNKSt14default_deleteI4GURLEclEPS0_.exit.i

_ZNKSt14default_deleteI4GURLEclEPS0_.exit.i:      ; preds = %1
  tail call void @_ZN4GURLD1Ev(ptr noundef nonnull align 8 dereferenceable(120) %3) #17
  tail call void @_ZdlPv(ptr noundef nonnull %3) #16
  br label %_ZNSt10unique_ptrI4GURLSt14default_deleteIS0_EED2Ev.exit

_ZNSt10unique_ptrI4GURLSt14default_deleteIS0_EED2Ev.exit: ; preds = %1, %_ZNKSt14default_deleteI4GURLEclEPS0_.exit.i
  store ptr null, ptr %2, align 8, !tbaa !32
  %4 = getelementptr inbounds nuw i8, ptr %0, i64 40
  tail call void @_ZN3url6ParsedD1Ev(ptr noundef nonnull align 8 dereferenceable(72) %4) #17
  %5 = load ptr, ptr %0, align 8, !tbaa !28
  %6 = getelementptr inbounds nuw i8, ptr %0, i64 16
  %7 = icmp eq ptr %5, %6
  br i1 %7, label %_ZNKSt7__cxx1112basic_stringIcSt11char_traitsIcESaIcEE11_M_is_localEv.exit.thread.i.i, label %_ZNKSt7__cxx1112basic_stringIcSt11char_traitsIcESaIcEE11_M_is_localEv.exit.i.i

_ZNKSt7__cxx1112basic_stringIcSt11char_traitsIcESaIcEE11_M_is_localEv.exit.thread.i.i: ; preds = %_ZNSt10unique_ptrI4GURLSt14default_deleteIS0_EED2Ev.exit
  %8 = getelementptr inbounds nuw i8, ptr %0, i64 8
  %9 = load i64, ptr %8, align 8, !tbaa !9
  %10 = icmp ult i64 %9, 16
  tail call void @llvm.assume(i1 %10)
  br label %_ZNSt7__cxx1112basic_stringIcSt11char_traitsIcESaIcEED2Ev.exit

_ZNKSt7__cxx1112basic_stringIcSt11char_traitsIcESaIcEE11_M_is_localEv.exit.i.i: ; preds = %_ZNSt10unique_ptrI4GURLSt14default_deleteIS0_EED2Ev.exit
  tail call void @_ZdlPv(ptr noundef %5) #16
  br label %_ZNSt7__cxx1112basic_stringIcSt11char_traitsIcESaIcEED2Ev.exit

_ZNSt7__cxx1112basic_stringIcSt11char_traitsIcESaIcEED2Ev.exit: ; preds = %_ZNKSt7__cxx1112basic_stringIcSt11char_traitsIcESaIcEE11_M_is_localEv.exit.thread.i.i, %_ZNKSt7__cxx1112basic_stringIcSt11char_traitsIcESaIcEE11_M_is_localEv.exit.i.i
  ret void
}